; Function Attrs: mustprogress uwtable
define dso_local void @_ZN24btConstraintSolverPoolMtC2EPP18btConstraintSolveri(ptr noundef nonnull align 8 dereferenceable(44) initializes((0, 8), (12, 20), (24, 33), (40, 44)) %0, ptr noundef readonly captures(none) %1, i32 noundef %2) unnamed_addr #0 align 2 personality ptr @__gxx_personality_v0 {
  store ptr getelementptr inbounds nuw inrange(-16, 56) (i8, ptr @_ZTV24btConstraintSolverPoolMt, i64 16), ptr %0, align 8, !tbaa !34
  %4 = getelementptr inbounds nuw i8, ptr %0, i64 32
  store i8 1, ptr %4, align 8, !tbaa !26
  %5 = getelementptr inbounds nuw i8, ptr %0, i64 24
  store ptr null, ptr %5, align 8, !tbaa !4
  %6 = getelementptr inbounds nuw i8, ptr %0, i64 12
  store i32 0, ptr %6, align 4, !tbaa !13
  %7 = getelementptr inbounds nuw i8, ptr %0, i64 16
  store i32 0, ptr %7, align 8, !tbaa !18
  invoke void @_ZN24btConstraintSolverPoolMt4initEPP18btConstraintSolveri(ptr noundef nonnull align 8 dereferenceable(44) %0, ptr noundef %1, i32 noundef %2)
          to label %8 unwind label %9

8:                                                ; preds = %3
  ret void

9:                                                ; preds = %3
  %10 = landingpad { ptr, i32 }
          cleanup
  %11 = getelementptr inbounds nuw i8, ptr %0, i64 8
  tail call void @_ZN20btAlignedObjectArrayIN24btConstraintSolverPoolMt12ThreadSolverEED2Ev(ptr noundef nonnull align 8 dereferenceable(25) %11) #11
  resume { ptr, i32 } %10
}